; Function Attrs: mustprogress uwtable
define hidden noundef i32 @_ZN4cvc56parser9Smt2State17getLearnedLitTypeERKNSt7__cxx1112basic_stringIcSt11char_traitsIcESaIcEEE(ptr noundef nonnull align 8 dereferenceable(512) %this, ptr noundef nonnull align 8 dereferenceable(32) %mode) local_unnamed_addr #3 align 2 personality ptr @__gxx_personality_v0 {
entry:
  %ref.tmp = alloca %"class.std::__cxx11::basic_string", align 8
  %ref.tmp21 = alloca %"class.std::__cxx11::basic_string", align 8
  %ref.tmp22 = alloca %"class.std::__cxx11::basic_string", align 8
  %ref.tmp23 = alloca %"class.std::allocator.11", align 1
  %call.i = tail call noundef i32 @_ZNKSt7__cxx1112basic_stringIcSt11char_traitsIcESaIcEE7compareEPKc(ptr noundef nonnull align 8 dereferenceable(32) %mode, ptr noundef nonnull @.str.191) #19
  %cmp.i = icmp eq i32 %call.i, 0
  br i1 %cmp.i, label %return, label %if.else

if.else:                                          ; preds = %entry
  %call.i10 = tail call noundef i32 @_ZNKSt7__cxx1112basic_stringIcSt11char_traitsIcESaIcEE7compareEPKc(ptr noundef nonnull align 8 dereferenceable(32) %mode, ptr noundef nonnull @.str.192) #19
  %cmp.i11 = icmp eq i32 %call.i10, 0
  br i1 %cmp.i11, label %return, label %if.else4

if.else4:                                         ; preds = %if.else
  %call.i12 = tail call noundef i32 @_ZNKSt7__cxx1112basic_stringIcSt11char_traitsIcESaIcEE7compareEPKc(ptr noundef nonnull align 8 dereferenceable(32) %mode, ptr noundef nonnull @.str.193) #19
  %cmp.i13 = icmp eq i32 %call.i12, 0
  br i1 %cmp.i13, label %return, label %if.else7

if.else7:                                         ; preds = %if.else4
  %call.i14 = tail call noundef i32 @_ZNKSt7__cxx1112basic_stringIcSt11char_traitsIcESaIcEE7compareEPKc(ptr noundef nonnull align 8 dereferenceable(32) %mode, ptr noundef nonnull @.str.194) #19
  %cmp.i15 = icmp eq i32 %call.i14, 0
  br i1 %cmp.i15, label %return, label %if.else10

if.else10:                                        ; preds = %if.else7
  %call.i16 = tail call noundef i32 @_ZNKSt7__cxx1112basic_stringIcSt11char_traitsIcESaIcEE7compareEPKc(ptr noundef nonnull align 8 dereferenceable(32) %mode, ptr noundef nonnull @.str.195) #19
  %cmp.i17 = icmp eq i32 %call.i16, 0
  br i1 %cmp.i17, label %return, label %if.else13

if.else13:                                        ; preds = %if.else10
  %call.i18 = tail call noundef i32 @_ZNKSt7__cxx1112basic_stringIcSt11char_traitsIcESaIcEE7compareEPKc(ptr noundef nonnull align 8 dereferenceable(32) %mode, ptr noundef nonnull @.str.196) #19
  %cmp.i19 = icmp eq i32 %call.i18, 0
  br i1 %cmp.i19, label %return, label %if.end20

if.end20:                                         ; preds = %if.else13
  call void @_ZNSaIcEC1Ev(ptr noundef nonnull align 1 dereferenceable(1) %ref.tmp23) #19
  invoke void @_ZNSt7__cxx1112basic_stringIcSt11char_traitsIcESaIcEEC2IS3_EEPKcRKS3_(ptr noundef nonnull align 8 dereferenceable(32) %ref.tmp22, ptr noundef nonnull @.str.197, ptr noundef nonnull align 1 dereferenceable(1) %ref.tmp23)
          to label %invoke.cont unwind label %lpad

invoke.cont:                                      ; preds = %if.end20
  %call.i2021 = invoke noundef nonnull align 8 dereferenceable(32) ptr @_ZNSt7__cxx1112basic_stringIcSt11char_traitsIcESaIcEE6appendERKS4_(ptr noundef nonnull align 8 dereferenceable(32) %ref.tmp22, ptr noundef nonnull align 8 dereferenceable(32) %mode)
          to label %invoke.cont25 unwind label %lpad24

invoke.cont25:                                    ; preds = %invoke.cont
  call void @_ZNSt7__cxx1112basic_stringIcSt11char_traitsIcESaIcEEC1EOS4_(ptr noundef nonnull align 8 dereferenceable(32) %ref.tmp21, ptr noundef nonnull align 8 dereferenceable(32) %call.i2021) #19
  %call.i2223 = invoke noundef nonnull align 8 dereferenceable(32) ptr @_ZNSt7__cxx1112basic_stringIcSt11char_traitsIcESaIcEE6appendEPKc(ptr noundef nonnull align 8 dereferenceable(32) %ref.tmp21, ptr noundef nonnull @.str.190)
          to label %invoke.cont27 unwind label %lpad26

invoke.cont27:                                    ; preds = %invoke.cont25
  call void @_ZNSt7__cxx1112basic_stringIcSt11char_traitsIcESaIcEEC1EOS4_(ptr noundef nonnull align 8 dereferenceable(32) %ref.tmp, ptr noundef nonnull align 8 dereferenceable(32) %call.i2223) #19
  invoke void @_ZN4cvc56parser11ParserState10parseErrorERKNSt7__cxx1112basic_stringIcSt11char_traitsIcESaIcEEE(ptr noundef nonnull align 8 dereferenceable(168) %this, ptr noundef nonnull align 8 dereferenceable(32) %ref.tmp)
          to label %invoke.cont29 unwind label %lpad28

invoke.cont29:                                    ; preds = %invoke.cont27
  call void @_ZNSt7__cxx1112basic_stringIcSt11char_traitsIcESaIcEED1Ev(ptr noundef nonnull align 8 dereferenceable(32) %ref.tmp) #19
  call void @_ZNSt7__cxx1112basic_stringIcSt11char_traitsIcESaIcEED1Ev(ptr noundef nonnull align 8 dereferenceable(32) %ref.tmp21) #19
  call void @_ZNSt7__cxx1112basic_stringIcSt11char_traitsIcESaIcEED1Ev(ptr noundef nonnull align 8 dereferenceable(32) %ref.tmp22) #19
  call void @_ZNSaIcED1Ev(ptr noundef nonnull align 1 dereferenceable(1) %ref.tmp23) #19
  br label %return

lpad:                                             ; preds = %if.end20
  %0 = landingpad { ptr, i32 }
          cleanup
  br label %ehcleanup31

lpad24:                                           ; preds = %invoke.cont
  %1 = landingpad { ptr, i32 }
          cleanup
  br label %ehcleanup30

lpad26:                                           ; preds = %invoke.cont25
  %2 = landingpad { ptr, i32 }
          cleanup
  br label %ehcleanup

lpad28:                                           ; preds = %invoke.cont27
  %3 = landingpad { ptr, i32 }
          cleanup
  call void @_ZNSt7__cxx1112basic_stringIcSt11char_traitsIcESaIcEED1Ev(ptr noundef nonnull align 8 dereferenceable(32) %ref.tmp) #19
  br label %ehcleanup

ehcleanup:                                        ; preds = %lpad28, %lpad26
  %.pn = phi { ptr, i32 } [ %3, %lpad28 ], [ %2, %lpad26 ]
  call void @_ZNSt7__cxx1112basic_stringIcSt11char_traitsIcESaIcEED1Ev(ptr noundef nonnull align 8 dereferenceable(32) %ref.tmp21) #19
  br label %ehcleanup30

ehcleanup30:                                      ; preds = %ehcleanup, %lpad24
  %.pn.pn = phi { ptr, i32 } [ %.pn, %ehcleanup ], [ %1, %lpad24 ]
  call void @_ZNSt7__cxx1112basic_stringIcSt11char_traitsIcESaIcEED1Ev(ptr noundef nonnull align 8 dereferenceable(32) %ref.tmp22) #19
  br label %ehcleanup31

ehcleanup31:                                      ; preds = %ehcleanup30, %lpad
  %.pn.pn.pn = phi { ptr, i32 } [ %.pn.pn, %ehcleanup30 ], [ %0, %lpad ]
  call void @_ZNSaIcED1Ev(ptr noundef nonnull align 1 dereferenceable(1) %ref.tmp23) #19
  resume { ptr, i32 } %.pn.pn.pn

return:                                           ; preds = %if.else13, %if.else10, %if.else7, %if.else4, %if.else, %entry, %invoke.cont29
  %retval.0 = phi i32 [ 6, %invoke.cont29 ], [ 0, %entry ], [ 1, %if.else ], [ 2, %if.else4 ], [ 3, %if.else7 ], [ 4, %if.else10 ], [ 5, %if.else13 ]
  ret i32 %retval.0
}